; Function Attrs: nounwind uwtable
define hidden i32 @ir_proto_3(ptr noundef %0, i8 noundef zeroext %1, i32 noundef %2, i32 noundef %3, i32 noundef %4, i32 noundef %5) local_unnamed_addr #0 {
  %7 = alloca %struct._ir_proto_t, align 1
  store i8 %1, ptr %7, align 1
  %8 = trunc i32 %2 to i8
  %9 = getelementptr inbounds i8, ptr %7, i64 1
  store i8 %8, ptr %9, align 1
  %10 = getelementptr inbounds i8, ptr %7, i64 2
  store i8 3, ptr %10, align 1
  %11 = trunc i32 %3 to i8
  %12 = getelementptr inbounds i8, ptr %7, i64 3
  store i8 %11, ptr %12, align 1
  %13 = trunc i32 %4 to i8
  %14 = getelementptr inbounds i8, ptr %7, i64 4
  store i8 %13, ptr %14, align 1
  %15 = trunc i32 %5 to i8
  %16 = getelementptr inbounds i8, ptr %7, i64 5
  store i8 %15, ptr %16, align 1
  %17 = getelementptr inbounds i8, ptr %0, i64 336
  %18 = load ptr, ptr %17, align 8
  %.not.i = icmp eq ptr %18, null
  br i1 %.not.i, label %19, label %ir_strl.exit

19:                                               ; preds = %6
  tail call void @ir_strtab_init(ptr noundef nonnull %17, i32 noundef 64, i32 noundef 4096) #20
  br label %ir_strl.exit

ir_strl.exit:                                     ; preds = %6, %19
  %20 = getelementptr inbounds i8, ptr %0, i64 352
  %21 = load i32, ptr %20, align 8
  %22 = add i32 %21, 1
  %23 = call i32 @ir_strtab_lookup(ptr noundef nonnull %17, ptr noundef nonnull %7, i32 noundef 6, i32 noundef %22) #20
  ret i32 %23
}